; Function Attrs: mustprogress nofree norecurse nosync nounwind willreturn memory(argmem: readwrite) uwtable
define void @_ZN29MLPoliciesStandAloneFunctions22setAttributePrioritiesERN3vcg20GLMeshAttributesInfo13RenderingAttsINS1_9ATT_NAMESEEE(ptr nocapture noundef nonnull align 1 dereferenceable(7) %0) local_unnamed_addr #14 align 2 personality ptr @__gxx_personality_v0 {
  %2 = getelementptr inbounds i8, ptr %0, i64 1
  %3 = load i8, ptr %2, align 1
  %4 = and i8 %3, 1
  %5 = xor i8 %4, 1
  %6 = getelementptr inbounds i8, ptr %0, i64 2
  %7 = load i8, ptr %6, align 1
  %8 = and i8 %5, %7
  store i8 %8, ptr %6, align 1
  %9 = getelementptr inbounds i8, ptr %0, i64 3
  %10 = load i8, ptr %9, align 1
  %11 = and i8 %10, 1
  %12 = xor i8 %11, 1
  %13 = getelementptr inbounds i8, ptr %0, i64 4
  %14 = load i8, ptr %13, align 1
  %15 = and i8 %12, %14
  store i8 %15, ptr %13, align 1
  %16 = getelementptr inbounds i8, ptr %0, i64 6
  %17 = load i8, ptr %16, align 1
  %18 = and i8 %17, 1
  %19 = xor i8 %18, 1
  %20 = getelementptr inbounds i8, ptr %0, i64 5
  %21 = load i8, ptr %20, align 1
  %22 = and i8 %19, %21
  store i8 %22, ptr %20, align 1
  ret void
}